target datalayout = "e-m:e-p270:32:32-p271:32:32-p272:64:64-i64:64-i128:128-f80:128-n8:16:32:64-S128"
target triple = "x86_64-pc-linux-gnu"

%struct._value_string = type { i32, ptr }
%struct.expert_field = type { i32, i32 }
%struct._packet_info = type { ptr, ptr, i32, i32, %struct.nstime_t, %struct.nstime_t, %struct.nstime_t, i8, ptr, ptr, ptr, ptr, %struct._address, %struct._address, %struct._address, %struct._address, %struct._address, %struct._address, i32, ptr, i8, [3 x i8], %struct.anon, i32, i32, i32, i32, ptr, i8, ptr, ptr, i16, i16, i32, i32, i16, i32, i32, ptr, ptr, ptr, i8, i8, i16, i16, i16, i32, i16, i16, ptr, ptr, ptr, ptr, ptr, i32, i32 }
%struct.nstime_t = type { i64, i32 }
%struct._address = type { i32, i32, ptr, ptr }
%struct.anon = type { i8, [3 x i8] }
%struct._proto_node = type { ptr, ptr, ptr, ptr, ptr, ptr, ptr }
%struct.field_info = type { ptr, i32, i32, i32, i32, i32, i32, ptr, ptr, ptr, i32, i32 }

@hf_mcpe_packet_id = internal global i32 0, align 4
@mcpe_packet_names = internal global [4 x %struct._value_string] zeroinitializer, align 16
@hf_mcpe_batch_length = internal global i32 0, align 4
@hf_mcpe_batch_body = internal global i32 0, align 4
@hf_mcpe_batch_records = internal global i32 0, align 4
@hf_mcpe_batch_record_length = internal global i32 0, align 4
@hf_mcpe_batch_record = internal global i32 0, align 4
@ett_mcpe_batch = internal global i32 0, align 4
@ett_mcpe_batch_record = internal global i32 0, align 4
@ei_mcpe_unknown_packet_id = internal global %struct.expert_field zeroinitializer, align 4
@ei_mcpe_decompression_failed = internal global %struct.expert_field zeroinitializer, align 4
@mcpe_packet_dissectors = internal global ptr null, align 8
@.str.60 = private unnamed_addr constant [13 x i8] c" (%u octets)\00", align 1
@.str.61 = private unnamed_addr constant [24 x i8] c"MCPE Decompressed batch\00", align 1
@.str.62 = private unnamed_addr constant [3 x i8] c" [\00", align 1
@.str.63 = private unnamed_addr constant [6 x i8] c" (%s)\00", align 1
@.str.64 = private unnamed_addr constant [16 x i8] c"Unknown ID: %#x\00", align 1
@.str.65 = private unnamed_addr constant [23 x i8] c"Unknown packet ID: %#x\00", align 1
@.str.66 = private unnamed_addr constant [3 x i8] c", \00", align 1
@.str.67 = private unnamed_addr constant [2 x i8] c"]\00", align 1

; Function Attrs: inlinehint nounwind null_pointer_is_valid sspstrong uwtable
define internal void @proto_item_set_generated(ptr noundef %0) #5 {
  %2 = alloca ptr, align 8
  store ptr %0, ptr %2, align 8
  %3 = load ptr, ptr %2, align 8
  %4 = icmp ne ptr %3, null
  br i1 %4, label %5, label %24

5:                                                ; preds = %1
  br label %6

6:                                                ; preds = %5
  %7 = load ptr, ptr %2, align 8
  %8 = getelementptr inbounds nuw %struct._proto_node, ptr %7, i32 0, i32 5
  %9 = load ptr, ptr %8, align 8
  %10 = icmp ne ptr %9, null
  br i1 %10, label %11, label %22

11:                                               ; preds = %6
  %12 = load ptr, ptr %2, align 8
  %13 = getelementptr inbounds nuw %struct._proto_node, ptr %12, i32 0, i32 5
  %14 = load ptr, ptr %13, align 8
  %15 = getelementptr inbounds nuw %struct.field_info, ptr %14, i32 0, i32 6
  %16 = load i32, ptr %15, align 4
  %17 = or i32 %16, 2
  %18 = load ptr, ptr %2, align 8
  %19 = getelementptr inbounds nuw %struct._proto_node, ptr %18, i32 0, i32 5
  %20 = load ptr, ptr %19, align 8
  %21 = getelementptr inbounds nuw %struct.field_info, ptr %20, i32 0, i32 6
  store i32 %17, ptr %21, align 4
  br label %22

22:                                               ; preds = %11, %6
  br label %23

23:                                               ; preds = %22
  br label %24

24:                                               ; preds = %23, %1
  ret void
}

; Function Attrs: null_pointer_is_valid sspstrong uwtable
define internal i32 @mcpe_dissect_batch(ptr noundef %0, ptr noundef %1, ptr noundef %2, ptr noundef %3) #0 {
  %5 = alloca ptr, align 8
  %6 = alloca ptr, align 8
  %7 = alloca ptr, align 8
  %8 = alloca ptr, align 8
  %9 = alloca i32, align 4
  %10 = alloca i32, align 4
  %11 = alloca ptr, align 8
  %12 = alloca i32, align 4
  %13 = alloca ptr, align 8
  %14 = alloca i32, align 4
  %15 = alloca ptr, align 8
  %16 = alloca i32, align 4
  %17 = alloca ptr, align 8
  %18 = alloca ptr, align 8
  %19 = alloca i32, align 4
  %20 = alloca i32, align 4
  %21 = alloca i32, align 4
  store ptr %0, ptr %5, align 8
  store ptr %1, ptr %6, align 8
  store ptr %2, ptr %7, align 8
  store ptr %3, ptr %8, align 8
  %22 = load ptr, ptr %7, align 8
  %23 = icmp ne ptr %22, null
  br i1 %23, label %24, label %141

24:                                               ; preds = %4
  call void @llvm.lifetime.start.p0(i64 4, ptr %9) #7
  call void @llvm.lifetime.start.p0(i64 4, ptr %10) #7
  store i32 1, ptr %10, align 4
  call void @llvm.lifetime.start.p0(i64 8, ptr %11) #7
  call void @llvm.lifetime.start.p0(i64 4, ptr %12) #7
  call void @llvm.lifetime.start.p0(i64 8, ptr %13) #7
  store i32 4, ptr %9, align 4
  %25 = load ptr, ptr %7, align 8
  %26 = load i32, ptr @hf_mcpe_batch_length, align 4
  %27 = load ptr, ptr %5, align 8
  %28 = load i32, ptr %10, align 4
  %29 = load i32, ptr %9, align 4
  %30 = call ptr @proto_tree_add_item_ret_uint(ptr noundef %25, i32 noundef %26, ptr noundef %27, i32 noundef %28, i32 noundef %29, i32 noundef 0, ptr noundef %12)
  %31 = load i32, ptr %9, align 4
  %32 = load i32, ptr %10, align 4
  %33 = add i32 %32, %31
  store i32 %33, ptr %10, align 4
  %34 = load i32, ptr %12, align 4
  store i32 %34, ptr %9, align 4
  %35 = load ptr, ptr %7, align 8
  %36 = load i32, ptr @hf_mcpe_batch_body, align 4
  %37 = load ptr, ptr %5, align 8
  %38 = load i32, ptr %10, align 4
  %39 = load i32, ptr %9, align 4
  %40 = call ptr @proto_tree_add_item(ptr noundef %35, i32 noundef %36, ptr noundef %37, i32 noundef %38, i32 noundef %39, i32 noundef 0)
  store ptr %40, ptr %11, align 8
  %41 = load ptr, ptr %5, align 8
  %42 = load ptr, ptr %5, align 8
  %43 = load i32, ptr %10, align 4
  %44 = load i32, ptr %12, align 4
  %45 = call ptr @tvb_child_uncompress_zlib(ptr noundef %41, ptr noundef %42, i32 noundef %43, i32 noundef %44)
  store ptr %45, ptr %13, align 8
  %46 = load ptr, ptr %13, align 8
  %47 = icmp ne ptr %46, null
  br i1 %47, label %48, label %136

48:                                               ; preds = %24
  call void @llvm.lifetime.start.p0(i64 4, ptr %14) #7
  call void @llvm.lifetime.start.p0(i64 8, ptr %15) #7
  %49 = load ptr, ptr %6, align 8
  %50 = load ptr, ptr %13, align 8
  call void @add_new_data_source(ptr noundef %49, ptr noundef %50, ptr noundef @.str.61)
  %51 = load ptr, ptr %13, align 8
  %52 = call i32 @tvb_captured_length(ptr noundef %51)
  store i32 %52, ptr %14, align 4
  store i32 0, ptr %10, align 4
  %53 = load i32, ptr %14, align 4
  store i32 %53, ptr %9, align 4
  %54 = load ptr, ptr %7, align 8
  %55 = load i32, ptr @hf_mcpe_batch_records, align 4
  %56 = load ptr, ptr %13, align 8
  %57 = load i32, ptr %10, align 4
  %58 = load i32, ptr %9, align 4
  %59 = call ptr @proto_tree_add_item(ptr noundef %54, i32 noundef %55, ptr noundef %56, i32 noundef %57, i32 noundef %58, i32 noundef 0)
  store ptr %59, ptr %11, align 8
  %60 = load ptr, ptr %11, align 8
  %61 = load i32, ptr @ett_mcpe_batch, align 4
  %62 = call ptr @proto_item_add_subtree(ptr noundef %60, i32 noundef %61)
  store ptr %62, ptr %15, align 8
  %63 = load ptr, ptr %11, align 8
  %64 = load i32, ptr %14, align 4
  call void (ptr, ptr, ...) @proto_item_append_text(ptr noundef %63, ptr noundef @.str.60, i32 noundef %64)
  %65 = load ptr, ptr %11, align 8
  call void @proto_item_set_generated(ptr noundef %65)
  %66 = load ptr, ptr %6, align 8
  %67 = getelementptr inbounds nuw %struct._packet_info, ptr %66, i32 0, i32 1
  %68 = load ptr, ptr %67, align 8
  call void @col_append_str(ptr noundef %68, i32 noundef 25, ptr noundef @.str.62)
  br label %69

69:                                               ; preds = %131, %48
  br label %70

70:                                               ; preds = %69
  call void @llvm.lifetime.start.p0(i64 4, ptr %16) #7
  call void @llvm.lifetime.start.p0(i64 8, ptr %17) #7
  call void @llvm.lifetime.start.p0(i64 8, ptr %18) #7
  call void @llvm.lifetime.start.p0(i64 4, ptr %19) #7
  call void @llvm.lifetime.start.p0(i64 4, ptr %20) #7
  store i32 4, ptr %9, align 4
  %71 = load ptr, ptr %15, align 8
  %72 = load i32, ptr @hf_mcpe_batch_record_length, align 4
  %73 = load ptr, ptr %13, align 8
  %74 = load i32, ptr %10, align 4
  %75 = load i32, ptr %9, align 4
  %76 = call ptr @proto_tree_add_item_ret_uint(ptr noundef %71, i32 noundef %72, ptr noundef %73, i32 noundef %74, i32 noundef %75, i32 noundef 0, ptr noundef %16)
  %77 = load i32, ptr %9, align 4
  %78 = load i32, ptr %10, align 4
  %79 = add i32 %78, %77
  store i32 %79, ptr %10, align 4
  %80 = load ptr, ptr %13, align 8
  %81 = load i32, ptr %10, align 4
  %82 = load i32, ptr %16, align 4
  %83 = call ptr @tvb_new_subset_length(ptr noundef %80, i32 noundef %81, i32 noundef %82)
  store ptr %83, ptr %17, align 8
  %84 = load i32, ptr %16, align 4
  %85 = load i32, ptr %10, align 4
  %86 = add i32 %85, %84
  store i32 %86, ptr %10, align 4
  %87 = load ptr, ptr %15, align 8
  %88 = load i32, ptr @hf_mcpe_batch_record, align 4
  %89 = load ptr, ptr %17, align 8
  %90 = call ptr @proto_tree_add_item(ptr noundef %87, i32 noundef %88, ptr noundef %89, i32 noundef 0, i32 noundef -1, i32 noundef 0)
  store ptr %90, ptr %11, align 8
  %91 = load ptr, ptr %11, align 8
  %92 = load i32, ptr @ett_mcpe_batch_record, align 4
  %93 = call ptr @proto_item_add_subtree(ptr noundef %91, i32 noundef %92)
  store ptr %93, ptr %18, align 8
  %94 = load ptr, ptr %18, align 8
  %95 = load i32, ptr @hf_mcpe_packet_id, align 4
  %96 = load ptr, ptr %17, align 8
  %97 = call ptr @proto_tree_add_item_ret_uint(ptr noundef %94, i32 noundef %95, ptr noundef %96, i32 noundef 0, i32 noundef 1, i32 noundef 0, ptr noundef %19)
  %98 = load ptr, ptr %11, align 8
  %99 = load i32, ptr %19, align 4
  %100 = call ptr @val_to_str(i32 noundef %99, ptr noundef @mcpe_packet_names, ptr noundef @.str.64)
  call void (ptr, ptr, ...) @proto_item_append_text(ptr noundef %98, ptr noundef @.str.63, ptr noundef %100)
  %101 = load ptr, ptr %6, align 8
  %102 = getelementptr inbounds nuw %struct._packet_info, ptr %101, i32 0, i32 1
  %103 = load ptr, ptr %102, align 8
  %104 = load i32, ptr %19, align 4
  %105 = call ptr @val_to_str(i32 noundef %104, ptr noundef @mcpe_packet_names, ptr noundef @.str.65)
  call void @col_append_str(ptr noundef %103, i32 noundef 25, ptr noundef %105)
  %106 = load ptr, ptr @mcpe_packet_dissectors, align 8
  %107 = load i32, ptr %19, align 4
  %108 = load ptr, ptr %17, align 8
  %109 = load ptr, ptr %6, align 8
  %110 = load ptr, ptr %18, align 8
  %111 = load ptr, ptr %8, align 8
  %112 = call i32 @dissector_try_uint_with_data(ptr noundef %106, i32 noundef %107, ptr noundef %108, ptr noundef %109, ptr noundef %110, i1 noundef zeroext true, ptr noundef %111)
  store i32 %112, ptr %20, align 4
  %113 = load i32, ptr %20, align 4
  %114 = icmp ne i32 %113, 0
  br i1 %114, label %119, label %115

115:                                              ; preds = %70
  %116 = load ptr, ptr %6, align 8
  %117 = load ptr, ptr %11, align 8
  %118 = call ptr @expert_add_info(ptr noundef %116, ptr noundef %117, ptr noundef @ei_mcpe_unknown_packet_id)
  br label %119

119:                                              ; preds = %115, %70
  %120 = load i32, ptr %10, align 4
  %121 = load i32, ptr %14, align 4
  %122 = icmp ult i32 %120, %121
  br i1 %122, label %123, label %127

123:                                              ; preds = %119
  %124 = load ptr, ptr %6, align 8
  %125 = getelementptr inbounds nuw %struct._packet_info, ptr %124, i32 0, i32 1
  %126 = load ptr, ptr %125, align 8
  call void @col_append_str(ptr noundef %126, i32 noundef 25, ptr noundef @.str.66)
  br label %128

127:                                              ; preds = %119
  store i32 3, ptr %21, align 4
  br label %129

128:                                              ; preds = %123
  store i32 0, ptr %21, align 4
  br label %129

129:                                              ; preds = %128, %127
  call void @llvm.lifetime.end.p0(i64 4, ptr %20) #7
  call void @llvm.lifetime.end.p0(i64 4, ptr %19) #7
  call void @llvm.lifetime.end.p0(i64 8, ptr %18) #7
  call void @llvm.lifetime.end.p0(i64 8, ptr %17) #7
  call void @llvm.lifetime.end.p0(i64 4, ptr %16) #7
  %130 = load i32, ptr %21, align 4
  switch i32 %130, label %144 [
    i32 0, label %131
    i32 3, label %132
  ]

131:                                              ; preds = %129
  br label %69

132:                                              ; preds = %129
  %133 = load ptr, ptr %6, align 8
  %134 = getelementptr inbounds nuw %struct._packet_info, ptr %133, i32 0, i32 1
  %135 = load ptr, ptr %134, align 8
  call void @col_append_str(ptr noundef %135, i32 noundef 25, ptr noundef @.str.67)
  call void @llvm.lifetime.end.p0(i64 8, ptr %15) #7
  call void @llvm.lifetime.end.p0(i64 4, ptr %14) #7
  br label %140

136:                                              ; preds = %24
  %137 = load ptr, ptr %6, align 8
  %138 = load ptr, ptr %11, align 8
  %139 = call ptr @expert_add_info(ptr noundef %137, ptr noundef %138, ptr noundef @ei_mcpe_decompression_failed)
  br label %140

140:                                              ; preds = %136, %132
  call void @llvm.lifetime.end.p0(i64 8, ptr %13) #7
  call void @llvm.lifetime.end.p0(i64 4, ptr %12) #7
  call void @llvm.lifetime.end.p0(i64 8, ptr %11) #7
  call void @llvm.lifetime.end.p0(i64 4, ptr %10) #7
  call void @llvm.lifetime.end.p0(i64 4, ptr %9) #7
  br label %141

141:                                              ; preds = %140, %4
  %142 = load ptr, ptr %5, align 8
  %143 = call i32 @tvb_reported_length(ptr noundef %142)
  ret i32 %143

144:                                              ; preds = %129
  unreachable
}