; Function Attrs: null_pointer_is_valid sspstrong uwtable
define internal i32 @mcpe_dissect_batch(ptr noundef %0, ptr noundef %1, ptr noundef %2, ptr noundef %3) #0 {
  %5 = alloca i32, align 4
  %6 = alloca i32, align 4
  %7 = alloca i32, align 4
  %.not = icmp eq ptr %2, null
  br i1 %.not, label %64, label %8

8:                                                ; preds = %4
  call void @llvm.lifetime.start.p0(i64 4, ptr nonnull %5) #6
  %9 = load i32, ptr @hf_mcpe_batch_length, align 4
  %10 = call ptr @proto_tree_add_item_ret_uint(ptr noundef nonnull %2, i32 noundef %9, ptr noundef %0, i32 noundef 1, i32 noundef 4, i32 noundef 0, ptr noundef nonnull %5)
  %11 = load i32, ptr %5, align 4
  %12 = load i32, ptr @hf_mcpe_batch_body, align 4
  %13 = call ptr @proto_tree_add_item(ptr noundef nonnull %2, i32 noundef %12, ptr noundef %0, i32 noundef 5, i32 noundef %11, i32 noundef 0)
  %14 = load i32, ptr %5, align 4
  %15 = call ptr @tvb_child_uncompress_zlib(ptr noundef %0, ptr noundef %0, i32 noundef 5, i32 noundef %14)
  %.not61 = icmp eq ptr %15, null
  br i1 %.not61, label %61, label %16

16:                                               ; preds = %8
  call void @add_new_data_source(ptr noundef %1, ptr noundef nonnull %15, ptr noundef nonnull @.str.61)
  %17 = call i32 @tvb_captured_length(ptr noundef nonnull %15)
  %18 = load i32, ptr @hf_mcpe_batch_records, align 4
  %19 = call ptr @proto_tree_add_item(ptr noundef nonnull %2, i32 noundef %18, ptr noundef nonnull %15, i32 noundef 0, i32 noundef %17, i32 noundef 0)
  %20 = load i32, ptr @ett_mcpe_batch, align 4
  %21 = call ptr @proto_item_add_subtree(ptr noundef %19, i32 noundef %20)
  call void (ptr, ptr, ...) @proto_item_append_text(ptr noundef %19, ptr noundef nonnull @.str.60, i32 noundef %17)
  %.not.i = icmp eq ptr %19, null
  br i1 %.not.i, label %proto_item_set_generated.exit, label %22

22:                                               ; preds = %16
  %23 = getelementptr inbounds nuw i8, ptr %19, i64 40
  %24 = load ptr, ptr %23, align 8
  %.not5.i = icmp eq ptr %24, null
  br i1 %.not5.i, label %proto_item_set_generated.exit, label %25

25:                                               ; preds = %22
  %26 = getelementptr inbounds nuw i8, ptr %24, i64 28
  %27 = load i32, ptr %26, align 4
  %28 = or i32 %27, 2
  store i32 %28, ptr %26, align 4
  br label %proto_item_set_generated.exit

proto_item_set_generated.exit:                    ; preds = %16, %22, %25
  %29 = getelementptr inbounds nuw i8, ptr %1, i64 8
  %30 = load ptr, ptr %29, align 8
  call void @col_append_str(ptr noundef %30, i32 noundef 25, ptr noundef nonnull @.str.62)
  br label %31

31:                                               ; preds = %57, %proto_item_set_generated.exit
  %.058 = phi i32 [ 0, %proto_item_set_generated.exit ], [ %38, %57 ]
  call void @llvm.lifetime.start.p0(i64 4, ptr nonnull %6) #6
  call void @llvm.lifetime.start.p0(i64 4, ptr nonnull %7) #6
  %32 = load i32, ptr @hf_mcpe_batch_record_length, align 4
  %33 = call ptr @proto_tree_add_item_ret_uint(ptr noundef %21, i32 noundef %32, ptr noundef nonnull %15, i32 noundef %.058, i32 noundef 4, i32 noundef 0, ptr noundef nonnull %6)
  %34 = add i32 %.058, 4
  %35 = load i32, ptr %6, align 4
  %36 = call ptr @tvb_new_subset_length(ptr noundef nonnull %15, i32 noundef %34, i32 noundef %35)
  %37 = load i32, ptr %6, align 4
  %38 = add i32 %37, %34
  %39 = load i32, ptr @hf_mcpe_batch_record, align 4
  %40 = call ptr @proto_tree_add_item(ptr noundef %21, i32 noundef %39, ptr noundef %36, i32 noundef 0, i32 noundef -1, i32 noundef 0)
  %41 = load i32, ptr @ett_mcpe_batch_record, align 4
  %42 = call ptr @proto_item_add_subtree(ptr noundef %40, i32 noundef %41)
  %43 = load i32, ptr @hf_mcpe_packet_id, align 4
  %44 = call ptr @proto_tree_add_item_ret_uint(ptr noundef %42, i32 noundef %43, ptr noundef %36, i32 noundef 0, i32 noundef 1, i32 noundef 0, ptr noundef nonnull %7)
  %45 = load i32, ptr %7, align 4
  %46 = call ptr @val_to_str(i32 noundef %45, ptr noundef nonnull @mcpe_packet_names, ptr noundef nonnull @.str.64)
  call void (ptr, ptr, ...) @proto_item_append_text(ptr noundef %40, ptr noundef nonnull @.str.63, ptr noundef %46)
  %47 = load ptr, ptr %29, align 8
  %48 = load i32, ptr %7, align 4
  %49 = call ptr @val_to_str(i32 noundef %48, ptr noundef nonnull @mcpe_packet_names, ptr noundef nonnull @.str.65)
  call void @col_append_str(ptr noundef %47, i32 noundef 25, ptr noundef %49)
  %50 = load ptr, ptr @mcpe_packet_dissectors, align 8
  %51 = load i32, ptr %7, align 4
  %52 = call i32 @dissector_try_uint_with_data(ptr noundef %50, i32 noundef %51, ptr noundef %36, ptr noundef %1, ptr noundef %42, i1 noundef zeroext true, ptr noundef %3)
  %.not62 = icmp eq i32 %52, 0
  br i1 %.not62, label %53, label %55

53:                                               ; preds = %31
  %54 = call ptr @expert_add_info(ptr noundef %1, ptr noundef %40, ptr noundef nonnull @ei_mcpe_unknown_packet_id)
  br label %55

55:                                               ; preds = %53, %31
  %56 = icmp ult i32 %38, %17
  br i1 %56, label %57, label %59

57:                                               ; preds = %55
  %58 = load ptr, ptr %29, align 8
  call void @col_append_str(ptr noundef %58, i32 noundef 25, ptr noundef nonnull @.str.66)
  call void @llvm.lifetime.end.p0(i64 4, ptr nonnull %7) #6
  call void @llvm.lifetime.end.p0(i64 4, ptr nonnull %6) #6
  br label %31

59:                                               ; preds = %55
  call void @llvm.lifetime.end.p0(i64 4, ptr nonnull %7) #6
  call void @llvm.lifetime.end.p0(i64 4, ptr nonnull %6) #6
  %60 = load ptr, ptr %29, align 8
  call void @col_append_str(ptr noundef %60, i32 noundef 25, ptr noundef nonnull @.str.67)
  br label %63

61:                                               ; preds = %8
  %62 = call ptr @expert_add_info(ptr noundef %1, ptr noundef %13, ptr noundef nonnull @ei_mcpe_decompression_failed)
  br label %63

63:                                               ; preds = %61, %59
  call void @llvm.lifetime.end.p0(i64 4, ptr nonnull %5) #6
  br label %64

64:                                               ; preds = %63, %4
  %65 = call i32 @tvb_reported_length(ptr noundef %0)
  ret i32 %65
}